target datalayout = "e-m:e-p270:32:32-p271:32:32-p272:64:64-i64:64-i128:128-f80:128-n8:16:32:64-S128"
target triple = "x86_64-pc-linux-gnu"

%struct.RsaKey = type { %struct.sp_int, %struct.sp_int, %struct.sp_int, %struct.sp_int, %struct.sp_int, %struct.sp_int, %struct.sp_int, %struct.sp_int, ptr, ptr, i32, i32, i32, ptr, i8 }
%struct.sp_int = type { i16, i16, [129 x i64] }

; Function Attrs: nounwind uwtable
define i32 @wc_hash2mgf(i32 noundef %0) #0 {
  %2 = alloca i32, align 4
  %3 = alloca i32, align 4
  store i32 %0, ptr %3, align 4, !tbaa !7
  %4 = load i32, ptr %3, align 4, !tbaa !7
  switch i32 %4, label %12 [
    i32 0, label %5
    i32 4, label %6
    i32 5, label %7
    i32 6, label %8
    i32 7, label %9
    i32 8, label %10
    i32 1, label %11
    i32 2, label %11
    i32 3, label %11
    i32 9, label %11
    i32 16, label %11
    i32 17, label %11
    i32 10, label %11
    i32 11, label %11
    i32 12, label %11
    i32 13, label %11
    i32 14, label %11
    i32 15, label %11
  ]

5:                                                ; preds = %1
  store i32 0, ptr %2, align 4
  br label %16

6:                                                ; preds = %1
  store i32 26, ptr %2, align 4
  br label %16

7:                                                ; preds = %1
  store i32 4, ptr %2, align 4
  br label %16

8:                                                ; preds = %1
  store i32 1, ptr %2, align 4
  br label %16

9:                                                ; preds = %1
  store i32 2, ptr %2, align 4
  br label %16

10:                                               ; preds = %1
  store i32 3, ptr %2, align 4
  br label %16

11:                                               ; preds = %1, %1, %1, %1, %1, %1, %1, %1, %1, %1, %1, %1
  br label %12

12:                                               ; preds = %1, %11
  br label %13

13:                                               ; preds = %12
  br label %14

14:                                               ; preds = %13
  br label %15

15:                                               ; preds = %14
  store i32 0, ptr %2, align 4
  br label %16

16:                                               ; preds = %15, %10, %9, %8, %7, %6, %5
  %17 = load i32, ptr %2, align 4
  ret i32 %17
}

; Function Attrs: nounwind uwtable
define i32 @wc_RsaSSL_Verify_ex2(ptr noundef %0, i32 noundef %1, ptr noundef %2, i32 noundef %3, ptr noundef %4, i32 noundef %5, i32 noundef %6) #0 {
  %8 = alloca i32, align 4
  %9 = alloca ptr, align 8
  %10 = alloca i32, align 4
  %11 = alloca ptr, align 8
  %12 = alloca i32, align 4
  %13 = alloca ptr, align 8
  %14 = alloca i32, align 4
  %15 = alloca i32, align 4
  %16 = alloca ptr, align 8
  %17 = alloca i32, align 4
  %18 = alloca i32, align 4
  store ptr %0, ptr %9, align 8, !tbaa !27
  store i32 %1, ptr %10, align 4, !tbaa !7
  store ptr %2, ptr %11, align 8, !tbaa !27
  store i32 %3, ptr %12, align 4, !tbaa !7
  store ptr %4, ptr %13, align 8, !tbaa !11
  store i32 %5, ptr %14, align 4, !tbaa !7
  store i32 %6, ptr %15, align 4, !tbaa !7
  call void @llvm.lifetime.start.p0(i64 8, ptr %16) #8
  call void @llvm.lifetime.start.p0(i64 4, ptr %17) #8
  %19 = load ptr, ptr %13, align 8, !tbaa !11
  %20 = icmp eq ptr %19, null
  br i1 %20, label %21, label %22

21:                                               ; preds = %7
  store i32 -173, ptr %8, align 4
  store i32 1, ptr %18, align 4
  br label %44

22:                                               ; preds = %7
  %23 = load ptr, ptr %13, align 8, !tbaa !11
  %24 = getelementptr inbounds nuw %struct.RsaKey, ptr %23, i32 0, i32 13
  %25 = load ptr, ptr %24, align 8, !tbaa !24
  store ptr %25, ptr %16, align 8, !tbaa !29
  br label %26

26:                                               ; preds = %22
  br label %27

27:                                               ; preds = %26
  br label %28

28:                                               ; preds = %27
  %29 = load ptr, ptr %9, align 8, !tbaa !27
  %30 = load i32, ptr %10, align 4, !tbaa !7
  %31 = load ptr, ptr %11, align 8, !tbaa !27
  %32 = load i32, ptr %12, align 4, !tbaa !7
  %33 = load ptr, ptr %13, align 8, !tbaa !11
  %34 = load i32, ptr %14, align 4, !tbaa !7
  %35 = load i32, ptr %15, align 4, !tbaa !7
  %36 = load i32, ptr %15, align 4, !tbaa !7
  %37 = call i32 @wc_hash2mgf(i32 noundef %36)
  %38 = load ptr, ptr %16, align 8, !tbaa !29
  %39 = call i32 @RsaPrivateDecryptEx(ptr noundef %29, i32 noundef %30, ptr noundef %31, i32 noundef %32, ptr noundef null, ptr noundef %33, i32 noundef 1, i8 noundef zeroext 1, i32 noundef %34, i32 noundef %35, i32 noundef %37, ptr noundef null, i32 noundef 0, i32 noundef -1, ptr noundef %38)
  store i32 %39, ptr %17, align 4, !tbaa !7
  br label %40

40:                                               ; preds = %28
  br label %41

41:                                               ; preds = %40
  br label %42

42:                                               ; preds = %41
  %43 = load i32, ptr %17, align 4, !tbaa !7
  store i32 %43, ptr %8, align 4
  store i32 1, ptr %18, align 4
  br label %44

44:                                               ; preds = %42, %21
  call void @llvm.lifetime.end.p0(i64 4, ptr %17) #8
  call void @llvm.lifetime.end.p0(i64 8, ptr %16) #8
  %45 = load i32, ptr %8, align 4
  ret i32 %45
}

; Function Attrs: nounwind uwtable
define i32 @wc_RsaSSL_Verify_ex(ptr noundef %0, i32 noundef %1, ptr noundef %2, i32 noundef %3, ptr noundef %4, i32 noundef %5) #0 {
  %7 = alloca ptr, align 8
  %8 = alloca i32, align 4
  %9 = alloca ptr, align 8
  %10 = alloca i32, align 4
  %11 = alloca ptr, align 8
  %12 = alloca i32, align 4
  %13 = alloca i32, align 4
  store ptr %0, ptr %7, align 8, !tbaa !27
  store i32 %1, ptr %8, align 4, !tbaa !7
  store ptr %2, ptr %9, align 8, !tbaa !27
  store i32 %3, ptr %10, align 4, !tbaa !7
  store ptr %4, ptr %11, align 8, !tbaa !11
  store i32 %5, ptr %12, align 4, !tbaa !7
  call void @llvm.lifetime.start.p0(i64 4, ptr %13) #8
  br label %14

14:                                               ; preds = %6
  br label %15

15:                                               ; preds = %14
  br label %16

16:                                               ; preds = %15
  %17 = load ptr, ptr %7, align 8, !tbaa !27
  %18 = load i32, ptr %8, align 4, !tbaa !7
  %19 = load ptr, ptr %9, align 8, !tbaa !27
  %20 = load i32, ptr %10, align 4, !tbaa !7
  %21 = load ptr, ptr %11, align 8, !tbaa !11
  %22 = load i32, ptr %12, align 4, !tbaa !7
  %23 = call i32 @wc_RsaSSL_Verify_ex2(ptr noundef %17, i32 noundef %18, ptr noundef %19, i32 noundef %20, ptr noundef %21, i32 noundef %22, i32 noundef 0)
  store i32 %23, ptr %13, align 4, !tbaa !7
  br label %24

24:                                               ; preds = %16
  br label %25

25:                                               ; preds = %24
  br label %26

26:                                               ; preds = %25
  %27 = load i32, ptr %13, align 4, !tbaa !7
  call void @llvm.lifetime.end.p0(i64 4, ptr %13) #8
  ret i32 %27
}