; Function Attrs: nounwind uwtable
define i32 @wc_RsaSSL_Verify_ex(ptr noundef captures(address_is_null) %0, i32 noundef %1, ptr noundef %2, i32 noundef %3, ptr noundef %4, i32 noundef %5) local_unnamed_addr #0 {
  %7 = icmp eq ptr %4, null
  br i1 %7, label %wc_RsaSSL_Verify_ex2.exit, label %8

8:                                                ; preds = %6
  %9 = getelementptr inbounds nuw i8, ptr %4, i64 8352
  %10 = load ptr, ptr %9, align 8, !tbaa !14
  %11 = tail call fastcc i32 @RsaPrivateDecryptEx(ptr noundef %0, i32 noundef %1, ptr noundef %2, i32 noundef %3, ptr noundef null, ptr noundef nonnull %4, i32 noundef 1, i8 noundef zeroext 1, i32 noundef %5, i32 noundef 0, i32 noundef 0, ptr noundef null, i32 noundef 0, i32 noundef -1, ptr noundef %10)
  br label %wc_RsaSSL_Verify_ex2.exit

wc_RsaSSL_Verify_ex2.exit:                        ; preds = %6, %8
  %.0.i = phi i32 [ %11, %8 ], [ -173, %6 ]
  ret i32 %.0.i
}